; Function Attrs: nounwind uwtable
define dso_local void @pg_log_generic(i32 noundef %0, i32 noundef %1, ptr noalias noundef %2, ...) local_unnamed_addr #0 {
  %4 = alloca [1 x %struct.__va_list_tag], align 16
  call void @llvm.lifetime.start.p0(i64 24, ptr nonnull %4) #13
  call void @llvm.va_start.p0(ptr nonnull %4)
  call void @pg_log_generic_v(i32 noundef %0, i32 noundef %1, ptr noundef %2, ptr noundef nonnull %4)
  call void @llvm.va_end.p0(ptr nonnull %4)
  call void @llvm.lifetime.end.p0(i64 24, ptr nonnull %4) #13
  ret void
}